; Function Attrs: nounwind uwtable
define noalias nonnull ptr @l_Lean_Macro_instMonadRefMacroM___lambda__1___boxed(ptr noundef %0, ptr noundef %1, ptr noundef %2) #0 {
  %4 = getelementptr inbounds nuw i8, ptr %0, i64 48
  %5 = load ptr, ptr %4, align 8, !tbaa !10
  %6 = ptrtoint ptr %5 to i64
  %7 = and i64 %6, 1
  %.not.i9 = icmp eq i64 %7, 0
  br i1 %.not.i9, label %8, label %lean_inc.exit.i

8:                                                ; preds = %3
  %.val.i.i = load i32, ptr %5, align 4, !tbaa !4
  %9 = icmp sgt i32 %.val.i.i, 0
  br i1 %9, label %10, label %12, !prof !9

10:                                               ; preds = %8
  %11 = add nuw i32 %.val.i.i, 1
  store i32 %11, ptr %5, align 4, !tbaa !4
  br label %lean_inc.exit.i

12:                                               ; preds = %8
  %.not.i.i = icmp eq i32 %.val.i.i, 0
  br i1 %.not.i.i, label %lean_inc.exit.i, label %13

13:                                               ; preds = %12
  tail call void @lean_inc_ref_cold(ptr noundef nonnull %5) #11
  br label %lean_inc.exit.i

lean_inc.exit.i:                                  ; preds = %13, %12, %10, %3
  tail call void @lean_inc_heartbeat() #11
  %14 = tail call noalias ptr @mi_malloc_small(i64 noundef 24) #11
  %15 = icmp eq ptr %14, null
  br i1 %15, label %16, label %l_Lean_Macro_instMonadRefMacroM___lambda__1.exit

16:                                               ; preds = %lean_inc.exit.i
  tail call void @lean_internal_panic_out_of_memory() #12
  unreachable

l_Lean_Macro_instMonadRefMacroM___lambda__1.exit: ; preds = %lean_inc.exit.i
  %17 = getelementptr inbounds nuw i8, ptr %14, i64 4
  store i32 1, ptr %14, align 4, !tbaa !4
  store i32 131096, ptr %17, align 4
  %18 = getelementptr inbounds nuw i8, ptr %14, i64 8
  store ptr %5, ptr %18, align 8, !tbaa !10
  %19 = getelementptr inbounds nuw i8, ptr %14, i64 16
  store ptr %2, ptr %19, align 8, !tbaa !10
  %20 = ptrtoint ptr %1 to i64
  %21 = and i64 %20, 1
  %.not = icmp eq i64 %21, 0
  br i1 %.not, label %22, label %lean_dec.exit6

22:                                               ; preds = %l_Lean_Macro_instMonadRefMacroM___lambda__1.exit
  %23 = load i32, ptr %1, align 4, !tbaa !4
  %24 = icmp sgt i32 %23, 1
  br i1 %24, label %25, label %27, !prof !9

25:                                               ; preds = %22
  %26 = add nsw i32 %23, -1
  store i32 %26, ptr %1, align 4, !tbaa !4
  br label %lean_dec.exit6

27:                                               ; preds = %22
  %.not.i = icmp eq i32 %23, 0
  br i1 %.not.i, label %lean_dec.exit6, label %28

28:                                               ; preds = %27
  tail call void @lean_dec_ref_cold(ptr noundef nonnull %1) #11
  br label %lean_dec.exit6

lean_dec.exit6:                                   ; preds = %28, %27, %25, %l_Lean_Macro_instMonadRefMacroM___lambda__1.exit
  %29 = ptrtoint ptr %0 to i64
  %30 = and i64 %29, 1
  %.not10 = icmp eq i64 %30, 0
  br i1 %.not10, label %31, label %lean_dec.exit

31:                                               ; preds = %lean_dec.exit6
  %32 = load i32, ptr %0, align 4, !tbaa !4
  %33 = icmp sgt i32 %32, 1
  br i1 %33, label %34, label %36, !prof !9

34:                                               ; preds = %31
  %35 = add nsw i32 %32, -1
  store i32 %35, ptr %0, align 4, !tbaa !4
  br label %lean_dec.exit

36:                                               ; preds = %31
  %.not.i7 = icmp eq i32 %32, 0
  br i1 %.not.i7, label %lean_dec.exit, label %37

37:                                               ; preds = %36
  tail call void @lean_dec_ref_cold(ptr noundef nonnull %0) #11
  br label %lean_dec.exit

lean_dec.exit:                                    ; preds = %37, %36, %34, %lean_dec.exit6
  ret ptr %14
}